; Function Attrs: mustprogress nofree norecurse nosync nounwind willreturn memory(read, argmem: readwrite, inaccessiblemem: none) uwtable
define internal noundef i32 @H5B2__test_store(ptr noundef writeonly captures(none) %0, ptr noundef readonly captures(none) %1) #1 {
  %3 = load i8, ptr @H5B2_init_g, align 1, !tbaa !3, !range !7, !noundef !8
  %4 = trunc nuw i8 %3 to i1
  %5 = load i8, ptr @H5_libterm_g, align 1, !range !7
  %6 = trunc nuw i8 %5 to i1
  %7 = xor i1 %6, true
  %8 = select i1 %4, i1 true, i1 %7
  br i1 %8, label %9, label %11, !prof !9

9:                                                ; preds = %2
  %10 = load i64, ptr %1, align 8, !tbaa !10
  store i64 %10, ptr %0, align 8, !tbaa !10
  br label %11

11:                                               ; preds = %9, %2
  ret i32 0
}